; Function Attrs: mustprogress uwtable
define void @_ZN8facebook5velox6memory15MemoryAllocator18setDefaultInstanceEPS2_(ptr noundef %instance) local_unnamed_addr #4 align 2 personality ptr @__gxx_personality_v0 {
entry:
  %call1.i.i.i = tail call noundef i32 @pthread_mutex_lock(ptr noundef nonnull @_ZN8facebook5velox6memory15MemoryAllocator10initMutex_E) #13
  %tobool.not.i.i = icmp eq i32 %call1.i.i.i, 0
  br i1 %tobool.not.i.i, label %_ZNSt10lock_guardISt5mutexEC2ERS0_.exit, label %if.then.i.i

if.then.i.i:                                      ; preds = %entry
  tail call void @_ZSt20__throw_system_errori(i32 noundef %call1.i.i.i) #26
  unreachable

_ZNSt10lock_guardISt5mutexEC2ERS0_.exit:          ; preds = %entry
  store ptr %instance, ptr @_ZN8facebook5velox6memory15MemoryAllocator15customInstance_E, align 8
  %call1.i.i.i1 = tail call noundef i32 @pthread_mutex_unlock(ptr noundef nonnull @_ZN8facebook5velox6memory15MemoryAllocator10initMutex_E) #13
  ret void
}